target datalayout = "e-m:e-p270:32:32-p271:32:32-p272:64:64-i64:64-i128:128-f80:128-n8:16:32:64-S128"
target triple = "x86_64-pc-linux-gnu"

%struct.H5I_class_t = type { i32, i32, i32, ptr }

@use_locks_env_g = global i32 -1, align 4
@ignore_disabled_locks_g = global i32 -1, align 4
@H5I_FILE_CLS = internal constant [1 x %struct.H5I_class_t] [%struct.H5I_class_t { i32 1, i32 0, i32 0, ptr @H5F__close_cb }], align 16
@.str.2 = private unnamed_addr constant [100 x i8] c"generated/home/dtcxzyw/WorkSpace/Projects/compilers/llvm-opt-benchmark/bench/hdf5/hdf5/src/H5Fint.c\00", align 1
@__func__.H5F_init = private unnamed_addr constant [9 x i8] c"H5F_init\00", align 1
@H5E_FILE_g = external global i64, align 8
@H5E_CANTINIT_g = external global i64, align 8
@.str.3 = private unnamed_addr constant [31 x i8] c"unable to initialize interface\00", align 1
@H5E_CANTGET_g = external global i64, align 8
@.str.4 = private unnamed_addr constant [50 x i8] c"unable to parse file locking environment variable\00", align 1
@.str.5 = private unnamed_addr constant [22 x i8] c"HDF5_USE_FILE_LOCKING\00", align 1
@.str.6 = private unnamed_addr constant [6 x i8] c"FALSE\00", align 1
@.str.7 = private unnamed_addr constant [2 x i8] c"0\00", align 1
@.str.8 = private unnamed_addr constant [12 x i8] c"BEST_EFFORT\00", align 1
@.str.9 = private unnamed_addr constant [5 x i8] c"TRUE\00", align 1
@.str.10 = private unnamed_addr constant [2 x i8] c"1\00", align 1

; Function Attrs: nounwind uwtable
define i32 @H5F__parse_file_lock_env_var(ptr noundef %0, ptr noundef %1) #0 {
  %3 = alloca ptr, align 8
  %4 = alloca ptr, align 8
  %5 = alloca ptr, align 8
  store ptr %0, ptr %3, align 8
  store ptr %1, ptr %4, align 8
  store ptr null, ptr %5, align 8
  %6 = call ptr @getenv(ptr noundef @.str.5) #10
  store ptr %6, ptr %5, align 8
  %7 = load ptr, ptr %5, align 8
  %8 = icmp ne ptr %7, null
  br i1 %8, label %9, label %20

9:                                                ; preds = %2
  %10 = load ptr, ptr %5, align 8
  %11 = call i32 @strcmp(ptr noundef %10, ptr noundef @.str.6) #11
  %12 = icmp ne i32 %11, 0
  br i1 %12, label %13, label %17

13:                                               ; preds = %9
  %14 = load ptr, ptr %5, align 8
  %15 = call i32 @strcmp(ptr noundef %14, ptr noundef @.str.7) #11
  %16 = icmp ne i32 %15, 0
  br i1 %16, label %20, label %17

17:                                               ; preds = %13, %9
  %18 = load ptr, ptr %3, align 8
  store i32 0, ptr %18, align 4
  %19 = load ptr, ptr %4, align 8
  store i32 -1, ptr %19, align 4
  br label %49

20:                                               ; preds = %13, %2
  %21 = load ptr, ptr %5, align 8
  %22 = icmp ne ptr %21, null
  br i1 %22, label %23, label %30

23:                                               ; preds = %20
  %24 = load ptr, ptr %5, align 8
  %25 = call i32 @strcmp(ptr noundef %24, ptr noundef @.str.8) #11
  %26 = icmp ne i32 %25, 0
  br i1 %26, label %30, label %27

27:                                               ; preds = %23
  %28 = load ptr, ptr %3, align 8
  store i32 1, ptr %28, align 4
  %29 = load ptr, ptr %4, align 8
  store i32 1, ptr %29, align 4
  br label %48

30:                                               ; preds = %23, %20
  %31 = load ptr, ptr %5, align 8
  %32 = icmp ne ptr %31, null
  br i1 %32, label %33, label %44

33:                                               ; preds = %30
  %34 = load ptr, ptr %5, align 8
  %35 = call i32 @strcmp(ptr noundef %34, ptr noundef @.str.9) #11
  %36 = icmp ne i32 %35, 0
  br i1 %36, label %37, label %41

37:                                               ; preds = %33
  %38 = load ptr, ptr %5, align 8
  %39 = call i32 @strcmp(ptr noundef %38, ptr noundef @.str.10) #11
  %40 = icmp ne i32 %39, 0
  br i1 %40, label %44, label %41

41:                                               ; preds = %37, %33
  %42 = load ptr, ptr %3, align 8
  store i32 1, ptr %42, align 4
  %43 = load ptr, ptr %4, align 8
  store i32 0, ptr %43, align 4
  br label %47

44:                                               ; preds = %37, %30
  %45 = load ptr, ptr %3, align 8
  store i32 -1, ptr %45, align 4
  %46 = load ptr, ptr %4, align 8
  store i32 -1, ptr %46, align 4
  br label %47

47:                                               ; preds = %44, %41
  br label %48

48:                                               ; preds = %47, %27
  br label %49

49:                                               ; preds = %48, %17
  ret i32 0
}

; Function Attrs: nounwind uwtable
define i32 @H5F_init() #0 {
  %1 = alloca i32, align 4
  %2 = alloca i8, align 1
  store i32 0, ptr %1, align 4
  store i8 0, ptr %2, align 1
  %3 = call i32 @H5I_register_type(ptr noundef @H5I_FILE_CLS)
  %4 = icmp slt i32 %3, 0
  br i1 %4, label %5, label %20

5:                                                ; preds = %0
  br label %6

6:                                                ; preds = %5
  br label %7

7:                                                ; preds = %6
  br label %8

8:                                                ; preds = %7
  %9 = load i64, ptr @H5E_FILE_g, align 8
  %10 = load i64, ptr @H5E_CANTINIT_g, align 8
  %11 = call i32 (ptr, ptr, i32, i64, i64, ptr, ...) @H5E_printf_stack(ptr noundef @.str.2, ptr noundef @__func__.H5F_init, i32 noundef 142, i64 noundef %9, i64 noundef %10, ptr noundef @.str.3)
  br label %12

12:                                               ; preds = %8
  store i8 1, ptr %2, align 1
  %13 = load i8, ptr %2, align 1
  %14 = trunc i8 %13 to i1
  %15 = zext i1 %14 to i8
  store i8 %15, ptr %2, align 1
  br label %16

16:                                               ; preds = %12
  br label %17

17:                                               ; preds = %16
  store i32 -1, ptr %1, align 4
  br label %39

18:                                               ; No predecessors!
  br label %19

19:                                               ; preds = %18
  br label %20

20:                                               ; preds = %19, %0
  %21 = call i32 @H5F__parse_file_lock_env_var(ptr noundef @use_locks_env_g, ptr noundef @ignore_disabled_locks_g)
  %22 = icmp slt i32 %21, 0
  br i1 %22, label %23, label %38

23:                                               ; preds = %20
  br label %24

24:                                               ; preds = %23
  br label %25

25:                                               ; preds = %24
  br label %26

26:                                               ; preds = %25
  %27 = load i64, ptr @H5E_FILE_g, align 8
  %28 = load i64, ptr @H5E_CANTGET_g, align 8
  %29 = call i32 (ptr, ptr, i32, i64, i64, ptr, ...) @H5E_printf_stack(ptr noundef @.str.2, ptr noundef @__func__.H5F_init, i32 noundef 146, i64 noundef %27, i64 noundef %28, ptr noundef @.str.4)
  br label %30

30:                                               ; preds = %26
  store i8 1, ptr %2, align 1
  %31 = load i8, ptr %2, align 1
  %32 = trunc i8 %31 to i1
  %33 = zext i1 %32 to i8
  store i8 %33, ptr %2, align 1
  br label %34

34:                                               ; preds = %30
  br label %35

35:                                               ; preds = %34
  store i32 -1, ptr %1, align 4
  br label %39

36:                                               ; No predecessors!
  br label %37

37:                                               ; preds = %36
  br label %38

38:                                               ; preds = %37, %20
  br label %39

39:                                               ; preds = %38, %35, %17
  %40 = load i32, ptr %1, align 4
  ret i32 %40
}