; Function Attrs: nounwind uwtable
define range(i32 -1, 1) i32 @H5F_init() local_unnamed_addr #0 {
  %1 = tail call i32 @H5I_register_type(ptr noundef nonnull @H5I_FILE_CLS) #22
  %2 = icmp slt i32 %1, 0
  br i1 %2, label %3, label %7

3:                                                ; preds = %0
  %4 = load i64, ptr @H5E_FILE_g, align 8
  %5 = load i64, ptr @H5E_CANTINIT_g, align 8
  %6 = tail call i32 (ptr, ptr, i32, i64, i64, ptr, ...) @H5E_printf_stack(ptr noundef nonnull @.str.2, ptr noundef nonnull @__func__.H5F_init, i32 noundef 142, i64 noundef %4, i64 noundef %5, ptr noundef nonnull @.str.3) #22
  br label %20

7:                                                ; preds = %0
  %8 = tail call ptr @getenv(ptr noundef nonnull @.str.5) #22
  %.not.i = icmp eq ptr %8, null
  br i1 %.not.i, label %.critedge21.i, label %9

9:                                                ; preds = %7
  %10 = tail call i32 @strcmp(ptr noundef nonnull dereferenceable(1) %8, ptr noundef nonnull dereferenceable(6) @.str.6) #23
  %.not16.i = icmp eq i32 %10, 0
  br i1 %.not16.i, label %H5F__parse_file_lock_env_var.exit, label %sub_0.i

sub_0.i:                                          ; preds = %9
  %11 = load i8, ptr %8, align 1
  %.not26.i = icmp eq i8 %11, 48
  br i1 %.not26.i, label %.tail.i, label %.tail.thread.i

.tail.i:                                          ; preds = %sub_0.i
  %12 = getelementptr inbounds i8, ptr %8, i64 1
  %13 = load i8, ptr %12, align 1
  %14 = icmp eq i8 %13, 0
  br i1 %14, label %H5F__parse_file_lock_env_var.exit, label %.tail.thread.i

.tail.thread.i:                                   ; preds = %.tail.i, %sub_0.i
  %15 = tail call i32 @strcmp(ptr noundef nonnull dereferenceable(1) %8, ptr noundef nonnull dereferenceable(12) @.str.8) #23
  %.not18.i = icmp eq i32 %15, 0
  br i1 %.not18.i, label %H5F__parse_file_lock_env_var.exit, label %.critedge.i

.critedge.i:                                      ; preds = %.tail.thread.i
  %16 = tail call i32 @strcmp(ptr noundef nonnull dereferenceable(1) %8, ptr noundef nonnull dereferenceable(5) @.str.9) #23
  %.not19.i = icmp eq i32 %16, 0
  br i1 %.not19.i, label %H5F__parse_file_lock_env_var.exit, label %sub_023.i

sub_023.i:                                        ; preds = %.critedge.i
  %.not27.i = icmp eq i8 %11, 49
  br i1 %.not27.i, label %.tail22.i, label %.critedge21.i

.tail22.i:                                        ; preds = %sub_023.i
  %17 = getelementptr inbounds i8, ptr %8, i64 1
  %18 = load i8, ptr %17, align 1
  %19 = icmp eq i8 %18, 0
  br i1 %19, label %H5F__parse_file_lock_env_var.exit, label %.critedge21.i

.critedge21.i:                                    ; preds = %.tail22.i, %sub_023.i, %7
  br label %H5F__parse_file_lock_env_var.exit

H5F__parse_file_lock_env_var.exit:                ; preds = %9, %.tail.i, %.tail.thread.i, %.critedge.i, %.tail22.i, %.critedge21.i
  %.sink30.i = phi i32 [ -1, %.critedge21.i ], [ 0, %.tail.i ], [ 0, %9 ], [ 1, %.tail.thread.i ], [ 1, %.tail22.i ], [ 1, %.critedge.i ]
  %.sink.i = phi i32 [ -1, %.critedge21.i ], [ -1, %.tail.i ], [ -1, %9 ], [ 1, %.tail.thread.i ], [ 0, %.tail22.i ], [ 0, %.critedge.i ]
  store i32 %.sink30.i, ptr @use_locks_env_g, align 4
  store i32 %.sink.i, ptr @ignore_disabled_locks_g, align 4
  br label %20

20:                                               ; preds = %H5F__parse_file_lock_env_var.exit, %3
  %.0 = phi i32 [ -1, %3 ], [ 0, %H5F__parse_file_lock_env_var.exit ]
  ret i32 %.0
}